Certificate:
    Data:
        Version: 3 (0x2)
        Serial Number: 2 (0x2)
        Signature Algorithm: ecdsa-with-SHA256
        Issuer: C=PT, ST=Lisbon, L=Lisbon, O=ULHT, OU=DEISI, CN=jqr/emailAddress=jose.rogado@ulusofona.pt
        Validity
            Not Before: Feb 22 19:07:40 2024 GMT
            Not After : Feb 21 19:07:40 2025 GMT
        Subject: C=PT, ST=Lisbon, L=Lisbon, O=ULHT, OU=DEISI, CN=ASUS-rubenpadua
        Subject Public Key Info:
            Public Key Algorithm: id-ecPublicKey
                Public-Key: (256 bit)
                pub:
                    04:94:1c:d1:d4:61:5b:22:41:5b:82:b3:ae:71:5b:
                    d7:16:b3:5e:a9:19:94:88:dd:12:3e:f1:e6:f4:13:
                    68:ce:61:c1:cb:88:3e:1b:b2:06:2c:4a:b7:e5:16:
                    d4:2a:46:74:dd:4c:d0:da:79:2d:a7:27:70:35:5b:
                    a8:be:3d:59:d2
                ASN1 OID: prime256v1
                NIST CURVE: P-256
        X509v3 extensions:
            X509v3 Subject Key Identifier: 
                7A:A0:0D:01:22:47:16:32:1E:38:6C:DE:AF:77:F5:07:7E:A4:29:4C
            X509v3 Basic Constraints: 
                CA:FALSE
            X509v3 Key Usage: 
                Digital Signature, Key Encipherment
            X509v3 Extended Key Usage: 
                TLS Web Server Authentication, TLS Web Client Authentication, E-mail Protection
            X509v3 Subject Alternative Name: 
                DNS:ASUS-rubenpadua, DNS:localhost
    Signature Algorithm: ecdsa-with-SHA256
         30:44:02:20:09:b3:e3:00:7b:78:d8:09:c3:62:d7:ad:86:5d:
         f1:67:bf:6d:aa:f5:6a:88:b5:f8:f2:58:24:8c:ba:ab:6d:0c:
         02:20:39:40:6e:84:60:43:a8:57:43:d7:7e:30:9b:16:62:8f:
         95:54:7e:d2:fa:2c:fd:ec:7c:ba:eb:3b:bd:85:d0:14
-----BEGIN CERTIFICATE-----
MIICZzCCAg6gAwIBAgIBAjAKBggqhkjOPQQDAjCBhTELMAkGA1UEBhMCUFQxDzAN
BgNVBAgMBkxpc2JvbjEPMA0GA1UEBwwGTGlzYm9uMQ0wCwYDVQQKDARVTEhUMQ4w
DAYDVQQLDAVERUlTSTEMMAoGA1UEAwwDanFyMScwJQYJKoZIhvcNAQkBFhhqb3Nl
LnJvZ2Fkb0B1bHVzb2ZvbmEucHQwHhcNMjQwMjIyMTkwNzQwWhcNMjUwMjIxMTkw
NzQwWjBoMQswCQYDVQQGEwJQVDEPMA0GA1UECAwGTGlzYm9uMQ8wDQYDVQQHDAZM
aXNib24xDTALBgNVBAoMBFVMSFQxDjAMBgNVBAsMBURFSVNJMRgwFgYDVQQDDA9B
U1VTLXJ1YmVucGFkdWEwWTATBgcqhkjOPQIBBggqhkjOPQMBBwNCAASUHNHUYVsi
QVuCs65xW9cWs16pGZSI3RI+8eb0E2jOYcHLiD4bsgYsSrflFtQqRnTdTNDaeS2n
J3A1W6i+PVnSo4GKMIGHMB0GA1UdDgQWBBR6oA0BIkcWMh44bN6vd/UHfqQpTDAJ
BgNVHRMEAjAAMAsGA1UdDwQEAwIFoDAnBgNVHSUEIDAeBggrBgEFBQcDAQYIKwYB
BQUHAwIGCCsGAQUFBwMEMCUGA1UdEQQeMByCD0FTVVMtcnViZW5wYWR1YYIJbG9j
YWxob3N0MAoGCCqGSM49BAMCA0cAMEQCIAmz4wB7eNgJw2LXrYZd8We/bar1aoi1
+PJYJIy6q20MAiA5QG6EYEOoV0PXfjCbFmKPlVR+0vos/ex8uus7vYXQFA==
-----END CERTIFICATE-----
